; Function Attrs: null_pointer_is_valid sspstrong uwtable
define internal i32 @dissect_h245_T_ip6_network(ptr noundef %0, i32 noundef %1, ptr noundef %2, ptr noundef %3, i32 noundef %4) #1 {
  %6 = alloca ptr, align 8
  call void @llvm.lifetime.start.p0(i64 8, ptr nonnull %6) #13
  %7 = call i32 @dissect_per_octet_string(ptr noundef %0, i32 noundef %1, ptr noundef %2, ptr noundef %3, i32 noundef %4, i32 noundef 16, i32 noundef 16, i1 noundef zeroext false, ptr noundef nonnull %6)
  %8 = load ptr, ptr @upcoming_channel, align 8
  %.not = icmp eq ptr %8, null
  br i1 %.not, label %23, label %9

9:                                                ; preds = %5
  %10 = getelementptr inbounds nuw i8, ptr %8, i64 32
  %11 = load ptr, ptr %10, align 8
  %.not6 = icmp eq ptr %11, null
  br i1 %.not6, label %23, label %12

12:                                               ; preds = %9
  %13 = load ptr, ptr %6, align 8
  %14 = getelementptr inbounds nuw i8, ptr %11, i64 24
  %15 = call ptr @tvb_memcpy(ptr noundef %13, ptr noundef nonnull %14, i32 noundef 0, i64 noundef 16)
  %16 = load ptr, ptr @upcoming_channel, align 8
  %17 = getelementptr inbounds nuw i8, ptr %16, i64 32
  %18 = load ptr, ptr %17, align 8
  %19 = getelementptr inbounds nuw i8, ptr %18, i64 24
  store i32 3, ptr %18, align 8
  %20 = getelementptr inbounds nuw i8, ptr %18, i64 4
  store i32 16, ptr %20, align 4
  %21 = getelementptr inbounds nuw i8, ptr %18, i64 8
  store ptr %19, ptr %21, align 8
  %22 = getelementptr inbounds nuw i8, ptr %18, i64 16
  store ptr null, ptr %22, align 8
  br label %23

23:                                               ; preds = %12, %9, %5
  call void @llvm.lifetime.end.p0(i64 8, ptr nonnull %6) #13
  ret i32 %7
}